target datalayout = "e-m:e-p270:32:32-p271:32:32-p272:64:64-i64:64-i128:128-f80:128-n8:16:32:64-S128"
target triple = "x86_64-pc-linux-gnu"

%struct.strbuf = type { i64, i64, ptr }
%struct.imap_store = type { ptr, ptr, i32, ptr, ptr }
%struct.imap_cmd_cb = type { ptr, ptr, ptr, i32 }
%struct.imap = type { i32, i32, i32, i32, i32, i32, ptr, ptr, %struct.imap_buffer }
%struct.imap_buffer = type { %struct.imap_socket, i32, i32, [1024 x i8] }
%struct.imap_socket = type { [2 x i32], ptr }
%struct.imap_cmd = type { ptr, %struct.imap_cmd_cb, ptr, i32 }

@.str = private unnamed_addr constant [1 x i8] zeroinitializer, align 1
@verbosity = internal global i32 0, align 4
@__const.issue_imap_cmd.buf = private unnamed_addr constant %struct.strbuf { i64 0, i64 0, ptr @strbuf_slopbuf }, align 8
@.str.98 = private unnamed_addr constant [8 x i8] c"%d %s\0D\0A\00", align 1
@.str.99 = private unnamed_addr constant [14 x i8] c"%d %s{%d%s}\0D\0A\00", align 1
@.str.100 = private unnamed_addr constant [2 x i8] c"+\00", align 1
@.str.101 = private unnamed_addr constant [23 x i8] c"imap command overflow!\00", align 1
@.str.102 = private unnamed_addr constant [18 x i8] c"(%d in progress) \00", align 1
@.str.103 = private unnamed_addr constant [6 x i8] c"LOGIN\00", align 1
@.str.104 = private unnamed_addr constant [7 x i8] c">>> %s\00", align 1
@.str.105 = private unnamed_addr constant [28 x i8] c">>> %d LOGIN <user> <pass>\0A\00", align 1
@.str.106 = private unnamed_addr constant [3 x i8] c"\0D\0A\00", align 1

; Function Attrs: nounwind uwtable
define internal ptr @issue_imap_cmd(ptr noundef %0, ptr noundef %1, ptr noundef %2, ptr noundef %3) #0 {
  %5 = alloca ptr, align 8
  %6 = alloca ptr, align 8
  %7 = alloca ptr, align 8
  %8 = alloca ptr, align 8
  %9 = alloca ptr, align 8
  %10 = alloca ptr, align 8
  %11 = alloca ptr, align 8
  %12 = alloca i32, align 4
  %13 = alloca %struct.strbuf, align 8
  %14 = alloca i32, align 4
  store ptr %0, ptr %6, align 8, !tbaa !43
  store ptr %1, ptr %7, align 8, !tbaa !108
  store ptr %2, ptr %8, align 8, !tbaa !29
  store ptr %3, ptr %9, align 8, !tbaa !120
  call void @llvm.lifetime.start.p0(i64 8, ptr %10) #11
  %15 = load ptr, ptr %6, align 8, !tbaa !43
  %16 = getelementptr inbounds nuw %struct.imap_store, ptr %15, i32 0, i32 3
  %17 = load ptr, ptr %16, align 8, !tbaa !58
  store ptr %17, ptr %10, align 8, !tbaa !57
  call void @llvm.lifetime.start.p0(i64 8, ptr %11) #11
  call void @llvm.lifetime.start.p0(i64 4, ptr %12) #11
  call void @llvm.lifetime.start.p0(i64 24, ptr %13) #11
  call void @llvm.memcpy.p0.p0.i64(ptr align 8 %13, ptr align 8 @__const.issue_imap_cmd.buf, i64 24, i1 false)
  %18 = call ptr @xmalloc(i64 noundef 56)
  store ptr %18, ptr %11, align 8, !tbaa !114
  %19 = load ptr, ptr %8, align 8, !tbaa !29
  %20 = load ptr, ptr %9, align 8, !tbaa !120
  %21 = call ptr @xstrvfmt(ptr noundef %19, ptr noundef %20)
  %22 = load ptr, ptr %11, align 8, !tbaa !114
  %23 = getelementptr inbounds nuw %struct.imap_cmd, ptr %22, i32 0, i32 2
  store ptr %21, ptr %23, align 8, !tbaa !136
  %24 = load ptr, ptr %10, align 8, !tbaa !57
  %25 = getelementptr inbounds nuw %struct.imap, ptr %24, i32 0, i32 3
  %26 = load i32, ptr %25, align 4, !tbaa !138
  %27 = add nsw i32 %26, 1
  store i32 %27, ptr %25, align 4, !tbaa !138
  %28 = load ptr, ptr %11, align 8, !tbaa !114
  %29 = getelementptr inbounds nuw %struct.imap_cmd, ptr %28, i32 0, i32 3
  store i32 %27, ptr %29, align 8, !tbaa !139
  %30 = load ptr, ptr %7, align 8, !tbaa !108
  %31 = icmp ne ptr %30, null
  br i1 %31, label %32, label %36

32:                                               ; preds = %4
  %33 = load ptr, ptr %11, align 8, !tbaa !114
  %34 = getelementptr inbounds nuw %struct.imap_cmd, ptr %33, i32 0, i32 1
  %35 = load ptr, ptr %7, align 8, !tbaa !108
  call void @llvm.memcpy.p0.p0.i64(ptr align 8 %34, ptr align 8 %35, i64 32, i1 false), !tbaa.struct !140
  br label %39

36:                                               ; preds = %4
  %37 = load ptr, ptr %11, align 8, !tbaa !114
  %38 = getelementptr inbounds nuw %struct.imap_cmd, ptr %37, i32 0, i32 1
  call void @llvm.memset.p0.i64(ptr align 8 %38, i8 0, i64 32, i1 false)
  br label %39

39:                                               ; preds = %36, %32
  br label %40

40:                                               ; preds = %45, %39
  %41 = load ptr, ptr %10, align 8, !tbaa !57
  %42 = getelementptr inbounds nuw %struct.imap, ptr %41, i32 0, i32 5
  %43 = load i32, ptr %42, align 4, !tbaa !141
  %44 = icmp ne i32 %43, 0
  br i1 %44, label %45, label %48

45:                                               ; preds = %40
  %46 = load ptr, ptr %6, align 8, !tbaa !43
  %47 = call i32 @get_cmd_result(ptr noundef %46, ptr noundef null)
  br label %40, !llvm.loop !142

48:                                               ; preds = %40
  %49 = load ptr, ptr %11, align 8, !tbaa !114
  %50 = getelementptr inbounds nuw %struct.imap_cmd, ptr %49, i32 0, i32 1
  %51 = getelementptr inbounds nuw %struct.imap_cmd_cb, ptr %50, i32 0, i32 2
  %52 = load ptr, ptr %51, align 8, !tbaa !143
  %53 = icmp ne ptr %52, null
  br i1 %53, label %61, label %54

54:                                               ; preds = %48
  %55 = load ptr, ptr %11, align 8, !tbaa !114
  %56 = getelementptr inbounds nuw %struct.imap_cmd, ptr %55, i32 0, i32 3
  %57 = load i32, ptr %56, align 8, !tbaa !139
  %58 = load ptr, ptr %11, align 8, !tbaa !114
  %59 = getelementptr inbounds nuw %struct.imap_cmd, ptr %58, i32 0, i32 2
  %60 = load ptr, ptr %59, align 8, !tbaa !136
  call void (ptr, ptr, ...) @strbuf_addf(ptr noundef %13, ptr noundef @.str.98, i32 noundef %57, ptr noundef %60)
  br label %78

61:                                               ; preds = %48
  %62 = load ptr, ptr %11, align 8, !tbaa !114
  %63 = getelementptr inbounds nuw %struct.imap_cmd, ptr %62, i32 0, i32 3
  %64 = load i32, ptr %63, align 8, !tbaa !139
  %65 = load ptr, ptr %11, align 8, !tbaa !114
  %66 = getelementptr inbounds nuw %struct.imap_cmd, ptr %65, i32 0, i32 2
  %67 = load ptr, ptr %66, align 8, !tbaa !136
  %68 = load ptr, ptr %11, align 8, !tbaa !114
  %69 = getelementptr inbounds nuw %struct.imap_cmd, ptr %68, i32 0, i32 1
  %70 = getelementptr inbounds nuw %struct.imap_cmd_cb, ptr %69, i32 0, i32 3
  %71 = load i32, ptr %70, align 8, !tbaa !144
  %72 = load ptr, ptr %10, align 8, !tbaa !57
  %73 = getelementptr inbounds nuw %struct.imap, ptr %72, i32 0, i32 1
  %74 = load i32, ptr %73, align 4, !tbaa !81
  %75 = and i32 %74, 4
  %76 = icmp ne i32 %75, 0
  %77 = select i1 %76, ptr @.str.100, ptr @.str
  call void (ptr, ptr, ...) @strbuf_addf(ptr noundef %13, ptr noundef @.str.99, i32 noundef %64, ptr noundef %67, i32 noundef %71, ptr noundef %77)
  br label %78

78:                                               ; preds = %61, %54
  %79 = getelementptr inbounds nuw %struct.strbuf, ptr %13, i32 0, i32 1
  %80 = load i64, ptr %79, align 8, !tbaa !20
  %81 = icmp ugt i64 %80, 2147483647
  br i1 %81, label %82, label %83

82:                                               ; preds = %78
  call void (ptr, ...) @die(ptr noundef @.str.101) #12
  unreachable

83:                                               ; preds = %78
  %84 = load i32, ptr @verbosity, align 4, !tbaa !4
  %85 = icmp slt i32 0, %84
  br i1 %85, label %86, label %112

86:                                               ; preds = %83
  %87 = load ptr, ptr %10, align 8, !tbaa !57
  %88 = getelementptr inbounds nuw %struct.imap, ptr %87, i32 0, i32 4
  %89 = load i32, ptr %88, align 8, !tbaa !145
  %90 = icmp ne i32 %89, 0
  br i1 %90, label %91, label %96

91:                                               ; preds = %86
  %92 = load ptr, ptr %10, align 8, !tbaa !57
  %93 = getelementptr inbounds nuw %struct.imap, ptr %92, i32 0, i32 4
  %94 = load i32, ptr %93, align 8, !tbaa !145
  %95 = call i32 (ptr, ...) @printf(ptr noundef @.str.102, i32 noundef %94)
  br label %96

96:                                               ; preds = %91, %86
  %97 = load ptr, ptr %11, align 8, !tbaa !114
  %98 = getelementptr inbounds nuw %struct.imap_cmd, ptr %97, i32 0, i32 2
  %99 = load ptr, ptr %98, align 8, !tbaa !136
  %100 = call i32 @starts_with(ptr noundef %99, ptr noundef @.str.103)
  %101 = icmp ne i32 %100, 0
  br i1 %101, label %106, label %102

102:                                              ; preds = %96
  %103 = getelementptr inbounds nuw %struct.strbuf, ptr %13, i32 0, i32 2
  %104 = load ptr, ptr %103, align 8, !tbaa !42
  %105 = call i32 (ptr, ...) @printf(ptr noundef @.str.104, ptr noundef %104)
  br label %111

106:                                              ; preds = %96
  %107 = load ptr, ptr %11, align 8, !tbaa !114
  %108 = getelementptr inbounds nuw %struct.imap_cmd, ptr %107, i32 0, i32 3
  %109 = load i32, ptr %108, align 8, !tbaa !139
  %110 = call i32 (ptr, ...) @printf(ptr noundef @.str.105, i32 noundef %109)
  br label %111

111:                                              ; preds = %106, %102
  br label %112

112:                                              ; preds = %111, %83
  %113 = load ptr, ptr %10, align 8, !tbaa !57
  %114 = getelementptr inbounds nuw %struct.imap, ptr %113, i32 0, i32 8
  %115 = getelementptr inbounds nuw %struct.imap_buffer, ptr %114, i32 0, i32 0
  %116 = getelementptr inbounds nuw %struct.strbuf, ptr %13, i32 0, i32 2
  %117 = load ptr, ptr %116, align 8, !tbaa !42
  %118 = getelementptr inbounds nuw %struct.strbuf, ptr %13, i32 0, i32 1
  %119 = load i64, ptr %118, align 8, !tbaa !20
  %120 = trunc i64 %119 to i32
  %121 = call i32 @socket_write(ptr noundef %115, ptr noundef %117, i32 noundef %120)
  %122 = sext i32 %121 to i64
  %123 = getelementptr inbounds nuw %struct.strbuf, ptr %13, i32 0, i32 1
  %124 = load i64, ptr %123, align 8, !tbaa !20
  %125 = icmp ne i64 %122, %124
  br i1 %125, label %126, label %138

126:                                              ; preds = %112
  %127 = load ptr, ptr %11, align 8, !tbaa !114
  %128 = getelementptr inbounds nuw %struct.imap_cmd, ptr %127, i32 0, i32 2
  %129 = load ptr, ptr %128, align 8, !tbaa !136
  call void @free(ptr noundef %129) #11
  %130 = load ptr, ptr %11, align 8, !tbaa !114
  call void @free(ptr noundef %130) #11
  %131 = load ptr, ptr %7, align 8, !tbaa !108
  %132 = icmp ne ptr %131, null
  br i1 %132, label %133, label %137

133:                                              ; preds = %126
  %134 = load ptr, ptr %7, align 8, !tbaa !108
  %135 = getelementptr inbounds nuw %struct.imap_cmd_cb, ptr %134, i32 0, i32 2
  %136 = load ptr, ptr %135, align 8, !tbaa !91
  call void @free(ptr noundef %136) #11
  br label %137

137:                                              ; preds = %133, %126
  call void @strbuf_release(ptr noundef %13)
  store ptr null, ptr %5, align 8
  store i32 1, ptr %14, align 4
  br label %218

138:                                              ; preds = %112
  call void @strbuf_release(ptr noundef %13)
  %139 = load ptr, ptr %11, align 8, !tbaa !114
  %140 = getelementptr inbounds nuw %struct.imap_cmd, ptr %139, i32 0, i32 1
  %141 = getelementptr inbounds nuw %struct.imap_cmd_cb, ptr %140, i32 0, i32 2
  %142 = load ptr, ptr %141, align 8, !tbaa !143
  %143 = icmp ne ptr %142, null
  br i1 %143, label %144, label %192

144:                                              ; preds = %138
  %145 = load ptr, ptr %10, align 8, !tbaa !57
  %146 = getelementptr inbounds nuw %struct.imap, ptr %145, i32 0, i32 1
  %147 = load i32, ptr %146, align 4, !tbaa !81
  %148 = and i32 %147, 4
  %149 = icmp ne i32 %148, 0
  br i1 %149, label %150, label %188

150:                                              ; preds = %144
  %151 = load ptr, ptr %10, align 8, !tbaa !57
  %152 = getelementptr inbounds nuw %struct.imap, ptr %151, i32 0, i32 8
  %153 = getelementptr inbounds nuw %struct.imap_buffer, ptr %152, i32 0, i32 0
  %154 = load ptr, ptr %11, align 8, !tbaa !114
  %155 = getelementptr inbounds nuw %struct.imap_cmd, ptr %154, i32 0, i32 1
  %156 = getelementptr inbounds nuw %struct.imap_cmd_cb, ptr %155, i32 0, i32 2
  %157 = load ptr, ptr %156, align 8, !tbaa !143
  %158 = load ptr, ptr %11, align 8, !tbaa !114
  %159 = getelementptr inbounds nuw %struct.imap_cmd, ptr %158, i32 0, i32 1
  %160 = getelementptr inbounds nuw %struct.imap_cmd_cb, ptr %159, i32 0, i32 3
  %161 = load i32, ptr %160, align 8, !tbaa !144
  %162 = call i32 @socket_write(ptr noundef %153, ptr noundef %157, i32 noundef %161)
  store i32 %162, ptr %12, align 4, !tbaa !4
  %163 = load ptr, ptr %11, align 8, !tbaa !114
  %164 = getelementptr inbounds nuw %struct.imap_cmd, ptr %163, i32 0, i32 1
  %165 = getelementptr inbounds nuw %struct.imap_cmd_cb, ptr %164, i32 0, i32 2
  %166 = load ptr, ptr %165, align 8, !tbaa !143
  call void @free(ptr noundef %166) #11
  %167 = load i32, ptr %12, align 4, !tbaa !4
  %168 = load ptr, ptr %11, align 8, !tbaa !114
  %169 = getelementptr inbounds nuw %struct.imap_cmd, ptr %168, i32 0, i32 1
  %170 = getelementptr inbounds nuw %struct.imap_cmd_cb, ptr %169, i32 0, i32 3
  %171 = load i32, ptr %170, align 8, !tbaa !144
  %172 = icmp ne i32 %167, %171
  br i1 %172, label %179, label %173

173:                                              ; preds = %150
  %174 = load ptr, ptr %10, align 8, !tbaa !57
  %175 = getelementptr inbounds nuw %struct.imap, ptr %174, i32 0, i32 8
  %176 = getelementptr inbounds nuw %struct.imap_buffer, ptr %175, i32 0, i32 0
  %177 = call i32 @socket_write(ptr noundef %176, ptr noundef @.str.106, i32 noundef 2)
  %178 = icmp ne i32 %177, 2
  br i1 %178, label %179, label %184

179:                                              ; preds = %173, %150
  %180 = load ptr, ptr %11, align 8, !tbaa !114
  %181 = getelementptr inbounds nuw %struct.imap_cmd, ptr %180, i32 0, i32 2
  %182 = load ptr, ptr %181, align 8, !tbaa !136
  call void @free(ptr noundef %182) #11
  %183 = load ptr, ptr %11, align 8, !tbaa !114
  call void @free(ptr noundef %183) #11
  store ptr null, ptr %5, align 8
  store i32 1, ptr %14, align 4
  br label %218

184:                                              ; preds = %173
  %185 = load ptr, ptr %11, align 8, !tbaa !114
  %186 = getelementptr inbounds nuw %struct.imap_cmd, ptr %185, i32 0, i32 1
  %187 = getelementptr inbounds nuw %struct.imap_cmd_cb, ptr %186, i32 0, i32 2
  store ptr null, ptr %187, align 8, !tbaa !143
  br label %191

188:                                              ; preds = %144
  %189 = load ptr, ptr %10, align 8, !tbaa !57
  %190 = getelementptr inbounds nuw %struct.imap, ptr %189, i32 0, i32 5
  store i32 1, ptr %190, align 4, !tbaa !141
  br label %191

191:                                              ; preds = %188, %184
  br label %202

192:                                              ; preds = %138
  %193 = load ptr, ptr %11, align 8, !tbaa !114
  %194 = getelementptr inbounds nuw %struct.imap_cmd, ptr %193, i32 0, i32 1
  %195 = getelementptr inbounds nuw %struct.imap_cmd_cb, ptr %194, i32 0, i32 0
  %196 = load ptr, ptr %195, align 8, !tbaa !146
  %197 = icmp ne ptr %196, null
  br i1 %197, label %198, label %201

198:                                              ; preds = %192
  %199 = load ptr, ptr %10, align 8, !tbaa !57
  %200 = getelementptr inbounds nuw %struct.imap, ptr %199, i32 0, i32 5
  store i32 1, ptr %200, align 4, !tbaa !141
  br label %201

201:                                              ; preds = %198, %192
  br label %202

202:                                              ; preds = %201, %191
  %203 = load ptr, ptr %11, align 8, !tbaa !114
  %204 = getelementptr inbounds nuw %struct.imap_cmd, ptr %203, i32 0, i32 0
  store ptr null, ptr %204, align 8, !tbaa !147
  %205 = load ptr, ptr %11, align 8, !tbaa !114
  %206 = load ptr, ptr %10, align 8, !tbaa !57
  %207 = getelementptr inbounds nuw %struct.imap, ptr %206, i32 0, i32 7
  %208 = load ptr, ptr %207, align 8, !tbaa !59
  store ptr %205, ptr %208, align 8, !tbaa !114
  %209 = load ptr, ptr %11, align 8, !tbaa !114
  %210 = getelementptr inbounds nuw %struct.imap_cmd, ptr %209, i32 0, i32 0
  %211 = load ptr, ptr %10, align 8, !tbaa !57
  %212 = getelementptr inbounds nuw %struct.imap, ptr %211, i32 0, i32 7
  store ptr %210, ptr %212, align 8, !tbaa !59
  %213 = load ptr, ptr %10, align 8, !tbaa !57
  %214 = getelementptr inbounds nuw %struct.imap, ptr %213, i32 0, i32 4
  %215 = load i32, ptr %214, align 8, !tbaa !145
  %216 = add nsw i32 %215, 1
  store i32 %216, ptr %214, align 8, !tbaa !145
  %217 = load ptr, ptr %11, align 8, !tbaa !114
  store ptr %217, ptr %5, align 8
  store i32 1, ptr %14, align 4
  br label %218

218:                                              ; preds = %202, %179, %137
  call void @llvm.lifetime.end.p0(i64 24, ptr %13) #11
  call void @llvm.lifetime.end.p0(i64 4, ptr %12) #11
  call void @llvm.lifetime.end.p0(i64 8, ptr %11) #11
  call void @llvm.lifetime.end.p0(i64 8, ptr %10) #11
  %219 = load ptr, ptr %5, align 8
  ret ptr %219
}