; Function Attrs: nounwind uwtable
define internal fastcc ptr @issue_imap_cmd(ptr noundef %0, ptr noundef readonly %1, ptr noundef %2, ptr noundef nonnull %3) unnamed_addr #0 {
  %5 = alloca %struct.strbuf, align 8
  %6 = getelementptr inbounds nuw i8, ptr %0, i64 24
  %7 = load ptr, ptr %6, align 8, !tbaa !50
  call void @llvm.lifetime.start.p0(i64 24, ptr nonnull %5) #22
  call void @llvm.memcpy.p0.p0.i64(ptr noundef nonnull align 8 dereferenceable(24) %5, ptr noundef nonnull align 8 dereferenceable(24) @__const.setup_curl.auth, i64 24, i1 false)
  %8 = tail call ptr @xmalloc(i64 noundef 56) #22
  %9 = tail call ptr @xstrvfmt(ptr noundef %2, ptr noundef nonnull %3) #22
  %10 = getelementptr inbounds nuw i8, ptr %8, i64 40
  store ptr %9, ptr %10, align 8, !tbaa !107
  %11 = getelementptr inbounds nuw i8, ptr %7, i64 12
  %12 = load i32, ptr %11, align 4, !tbaa !109
  %13 = add nsw i32 %12, 1
  store i32 %13, ptr %11, align 4, !tbaa !109
  %14 = getelementptr inbounds nuw i8, ptr %8, i64 48
  store i32 %13, ptr %14, align 8, !tbaa !110
  %.not = icmp eq ptr %1, null
  %15 = getelementptr inbounds nuw i8, ptr %8, i64 8
  br i1 %.not, label %17, label %16

16:                                               ; preds = %4
  tail call void @llvm.memcpy.p0.p0.i64(ptr noundef nonnull align 8 dereferenceable(32) %15, ptr noundef nonnull align 8 dereferenceable(32) %1, i64 32, i1 false), !tbaa.struct !111
  br label %18

17:                                               ; preds = %4
  tail call void @llvm.memset.p0.i64(ptr noundef nonnull align 8 dereferenceable(32) %15, i8 0, i64 32, i1 false)
  br label %18

18:                                               ; preds = %17, %16
  %19 = getelementptr inbounds nuw i8, ptr %7, i64 20
  %20 = load i32, ptr %19, align 4, !tbaa !113
  %.not5364 = icmp eq i32 %20, 0
  br i1 %.not5364, label %._crit_edge, label %.lr.ph

.lr.ph:                                           ; preds = %18, %.lr.ph
  %21 = tail call fastcc i32 @get_cmd_result(ptr noundef %0, ptr noundef null)
  %22 = load i32, ptr %19, align 4, !tbaa !113
  %.not53 = icmp eq i32 %22, 0
  br i1 %.not53, label %._crit_edge, label %.lr.ph, !llvm.loop !114

._crit_edge:                                      ; preds = %.lr.ph, %18
  %23 = getelementptr inbounds nuw i8, ptr %8, i64 8
  %24 = getelementptr inbounds nuw i8, ptr %8, i64 24
  %25 = load ptr, ptr %24, align 8, !tbaa !115
  %.not54 = icmp eq ptr %25, null
  %26 = load i32, ptr %14, align 8, !tbaa !110
  %27 = load ptr, ptr %10, align 8, !tbaa !107
  br i1 %.not54, label %28, label %29

28:                                               ; preds = %._crit_edge
  call void (ptr, ptr, ...) @strbuf_addf(ptr noundef nonnull %5, ptr noundef nonnull @.str.98, i32 noundef %26, ptr noundef %27) #22
  br label %36

29:                                               ; preds = %._crit_edge
  %30 = getelementptr inbounds nuw i8, ptr %8, i64 32
  %31 = load i32, ptr %30, align 8, !tbaa !116
  %32 = getelementptr inbounds nuw i8, ptr %7, i64 4
  %33 = load i32, ptr %32, align 4, !tbaa !75
  %34 = and i32 %33, 4
  %.not55 = icmp eq i32 %34, 0
  %35 = select i1 %.not55, ptr @.str, ptr @.str.100
  call void (ptr, ptr, ...) @strbuf_addf(ptr noundef nonnull %5, ptr noundef nonnull @.str.99, i32 noundef %26, ptr noundef %27, i32 noundef %31, ptr noundef nonnull %35) #22
  br label %36

36:                                               ; preds = %29, %28
  %37 = getelementptr inbounds nuw i8, ptr %5, i64 8
  %38 = load i64, ptr %37, align 8, !tbaa !20
  %39 = icmp ugt i64 %38, 2147483647
  br i1 %39, label %40, label %41

40:                                               ; preds = %36
  call void (ptr, ...) @die(ptr noundef nonnull @.str.101) #23
  unreachable

41:                                               ; preds = %36
  %42 = load i32, ptr @verbosity, align 4, !tbaa !19
  %43 = icmp sgt i32 %42, 0
  br i1 %43, label %44, label %59

44:                                               ; preds = %41
  %45 = getelementptr inbounds nuw i8, ptr %7, i64 16
  %46 = load i32, ptr %45, align 8, !tbaa !117
  %.not56 = icmp eq i32 %46, 0
  br i1 %.not56, label %49, label %47

47:                                               ; preds = %44
  %48 = call i32 (ptr, ...) @printf(ptr noundef nonnull dereferenceable(1) @.str.102, i32 noundef %46)
  br label %49

49:                                               ; preds = %47, %44
  %50 = load ptr, ptr %10, align 8, !tbaa !107
  %51 = call i32 @starts_with(ptr noundef %50, ptr noundef nonnull @.str.103) #22
  %.not57 = icmp eq i32 %51, 0
  br i1 %.not57, label %52, label %56

52:                                               ; preds = %49
  %53 = getelementptr inbounds nuw i8, ptr %5, i64 16
  %54 = load ptr, ptr %53, align 8, !tbaa !23
  %55 = call i32 (ptr, ...) @printf(ptr noundef nonnull dereferenceable(1) @.str.104, ptr noundef %54)
  br label %59

56:                                               ; preds = %49
  %57 = load i32, ptr %14, align 8, !tbaa !110
  %58 = call i32 (ptr, ...) @printf(ptr noundef nonnull dereferenceable(1) @.str.105, i32 noundef %57)
  br label %59

59:                                               ; preds = %52, %56, %41
  %60 = getelementptr inbounds nuw i8, ptr %7, i64 40
  %61 = getelementptr inbounds nuw i8, ptr %5, i64 16
  %62 = load ptr, ptr %61, align 8, !tbaa !23
  %63 = load i64, ptr %37, align 8, !tbaa !20
  %64 = trunc i64 %63 to i32
  %65 = call fastcc i32 @socket_write(ptr noundef nonnull %60, ptr noundef %62, i32 noundef %64)
  %66 = sext i32 %65 to i64
  %67 = load i64, ptr %37, align 8, !tbaa !20
  %.not58 = icmp eq i64 %67, %66
  br i1 %.not58, label %74, label %68

68:                                               ; preds = %59
  %69 = load ptr, ptr %10, align 8, !tbaa !107
  call void @free(ptr noundef %69) #22
  call void @free(ptr noundef nonnull %8) #22
  br i1 %.not, label %73, label %70

70:                                               ; preds = %68
  %71 = getelementptr inbounds nuw i8, ptr %1, i64 16
  %72 = load ptr, ptr %71, align 8, !tbaa !82
  call void @free(ptr noundef %72) #22
  br label %73

73:                                               ; preds = %70, %68
  call void @strbuf_release(ptr noundef nonnull %5) #22
  br label %101

74:                                               ; preds = %59
  call void @strbuf_release(ptr noundef nonnull %5) #22
  %75 = load ptr, ptr %24, align 8, !tbaa !115
  %.not59 = icmp eq ptr %75, null
  br i1 %.not59, label %92, label %76

76:                                               ; preds = %74
  %77 = getelementptr inbounds nuw i8, ptr %7, i64 4
  %78 = load i32, ptr %77, align 4, !tbaa !75
  %79 = and i32 %78, 4
  %.not61 = icmp eq i32 %79, 0
  br i1 %.not61, label %91, label %80

80:                                               ; preds = %76
  %81 = getelementptr inbounds nuw i8, ptr %8, i64 32
  %82 = load i32, ptr %81, align 8, !tbaa !116
  %83 = call fastcc i32 @socket_write(ptr noundef nonnull %60, ptr noundef nonnull %75, i32 noundef %82)
  %84 = load ptr, ptr %24, align 8, !tbaa !115
  call void @free(ptr noundef %84) #22
  %85 = load i32, ptr %81, align 8, !tbaa !116
  %.not62 = icmp eq i32 %83, %85
  br i1 %.not62, label %86, label %88

86:                                               ; preds = %80
  %87 = call fastcc i32 @socket_write(ptr noundef nonnull %60, ptr noundef nonnull @.str.106, i32 noundef 2)
  %.not63 = icmp eq i32 %87, 2
  br i1 %.not63, label %90, label %88

88:                                               ; preds = %86, %80
  %89 = load ptr, ptr %10, align 8, !tbaa !107
  call void @free(ptr noundef %89) #22
  call void @free(ptr noundef nonnull %8) #22
  br label %101

90:                                               ; preds = %86
  store ptr null, ptr %24, align 8, !tbaa !115
  br label %95

91:                                               ; preds = %76
  store i32 1, ptr %19, align 4, !tbaa !113
  br label %95

92:                                               ; preds = %74
  %93 = load ptr, ptr %23, align 8, !tbaa !118
  %.not60 = icmp eq ptr %93, null
  br i1 %.not60, label %95, label %94

94:                                               ; preds = %92
  store i32 1, ptr %19, align 4, !tbaa !113
  br label %95

95:                                               ; preds = %92, %94, %90, %91
  store ptr null, ptr %8, align 8, !tbaa !119
  %96 = getelementptr inbounds nuw i8, ptr %7, i64 32
  %97 = load ptr, ptr %96, align 8, !tbaa !51
  store ptr %8, ptr %97, align 8, !tbaa !120
  store ptr %8, ptr %96, align 8, !tbaa !51
  %98 = getelementptr inbounds nuw i8, ptr %7, i64 16
  %99 = load i32, ptr %98, align 8, !tbaa !117
  %100 = add nsw i32 %99, 1
  store i32 %100, ptr %98, align 8, !tbaa !117
  br label %101

101:                                              ; preds = %95, %88, %73
  %.0 = phi ptr [ null, %73 ], [ null, %88 ], [ %8, %95 ]
  call void @llvm.lifetime.end.p0(i64 24, ptr nonnull %5) #22
  ret ptr %.0
}